target datalayout = "e-m:e-p270:32:32-p271:32:32-p272:64:64-i64:64-i128:128-f80:128-n8:16:32:64-S128"
target triple = "x86_64-pc-linux-gnu"

; Function Attrs: nounwind uwtable
define internal i64 @r_long(ptr noundef %0) #0 {
  %2 = alloca ptr, align 8
  %3 = alloca i64, align 8
  %4 = alloca ptr, align 8
  store ptr %0, ptr %2, align 8, !tbaa !23
  call void @llvm.lifetime.start.p0(i64 8, ptr %3) #11
  store i64 -1, ptr %3, align 8, !tbaa !4
  call void @llvm.lifetime.start.p0(i64 8, ptr %4) #11
  %5 = load ptr, ptr %2, align 8, !tbaa !23
  %6 = call ptr @r_string(i64 noundef 4, ptr noundef %5)
  store ptr %6, ptr %4, align 8, !tbaa !37
  %7 = load ptr, ptr %4, align 8, !tbaa !37
  %8 = icmp ne ptr %7, null
  br i1 %8, label %9, label %40

9:                                                ; preds = %1
  %10 = load ptr, ptr %4, align 8, !tbaa !37
  %11 = getelementptr i8, ptr %10, i64 0
  %12 = load i8, ptr %11, align 1, !tbaa !24
  %13 = zext i8 %12 to i64
  store i64 %13, ptr %3, align 8, !tbaa !4
  %14 = load ptr, ptr %4, align 8, !tbaa !37
  %15 = getelementptr i8, ptr %14, i64 1
  %16 = load i8, ptr %15, align 1, !tbaa !24
  %17 = zext i8 %16 to i64
  %18 = shl i64 %17, 8
  %19 = load i64, ptr %3, align 8, !tbaa !4
  %20 = or i64 %19, %18
  store i64 %20, ptr %3, align 8, !tbaa !4
  %21 = load ptr, ptr %4, align 8, !tbaa !37
  %22 = getelementptr i8, ptr %21, i64 2
  %23 = load i8, ptr %22, align 1, !tbaa !24
  %24 = zext i8 %23 to i64
  %25 = shl i64 %24, 16
  %26 = load i64, ptr %3, align 8, !tbaa !4
  %27 = or i64 %26, %25
  store i64 %27, ptr %3, align 8, !tbaa !4
  %28 = load ptr, ptr %4, align 8, !tbaa !37
  %29 = getelementptr i8, ptr %28, i64 3
  %30 = load i8, ptr %29, align 1, !tbaa !24
  %31 = zext i8 %30 to i64
  %32 = shl i64 %31, 24
  %33 = load i64, ptr %3, align 8, !tbaa !4
  %34 = or i64 %33, %32
  store i64 %34, ptr %3, align 8, !tbaa !4
  %35 = load i64, ptr %3, align 8, !tbaa !4
  %36 = and i64 %35, 2147483648
  %37 = sub i64 0, %36
  %38 = load i64, ptr %3, align 8, !tbaa !4
  %39 = or i64 %38, %37
  store i64 %39, ptr %3, align 8, !tbaa !4
  br label %40

40:                                               ; preds = %9, %1
  %41 = load i64, ptr %3, align 8, !tbaa !4
  call void @llvm.lifetime.end.p0(i64 8, ptr %4) #11
  call void @llvm.lifetime.end.p0(i64 8, ptr %3) #11
  ret i64 %41
}