; Function Attrs: nounwind uwtable
define internal fastcc i64 @r_long(ptr noundef nonnull captures(none) %0) unnamed_addr #0 {
  %2 = tail call fastcc ptr @r_string(i64 noundef 4, ptr noundef %0)
  %.not = icmp eq ptr %2, null
  br i1 %.not, label %18, label %3

3:                                                ; preds = %1
  %4 = load i16, ptr %2, align 1
  %5 = zext i16 %4 to i64
  %6 = getelementptr i8, ptr %2, i64 2
  %7 = load i8, ptr %6, align 1, !tbaa !25
  %8 = zext i8 %7 to i64
  %9 = shl nuw nsw i64 %8, 16
  %10 = or disjoint i64 %9, %5
  %11 = getelementptr i8, ptr %2, i64 3
  %12 = load i8, ptr %11, align 1, !tbaa !25
  %13 = zext i8 %12 to i64
  %14 = shl nuw nsw i64 %13, 24
  %15 = and i64 %14, 2147483648
  %16 = sub nsw i64 %10, %15
  %17 = or i64 %16, %14
  br label %18

18:                                               ; preds = %3, %1
  %.0 = phi i64 [ %17, %3 ], [ -1, %1 ]
  ret i64 %.0
}